; Function Attrs: mustprogress uwtable
define internal fastcc void @"_ZNO8pybind116detail15argument_loaderIJNS_6objectENS_8functionEEE4callINS_7weakrefENS0_9void_typeERZ22test_submodule_pytypesRNS_7module_EE5$_100EENSt9enable_ifIXntsr3std7is_voidIT_EE5valueESD_E4typeEOT1_"(ptr dead_on_unwind noalias nonnull writable align 8 %0, ptr nocapture noundef nonnull align 8 dereferenceable(16) %1) unnamed_addr #1 align 2 personality ptr @__gxx_personality_v0 {
  %3 = alloca %"class.pybind11::object", align 8
  %4 = alloca %"class.pybind11::function", align 8
  call void @llvm.lifetime.start.p0(i64 8, ptr nonnull %3)
  call void @llvm.lifetime.start.p0(i64 8, ptr nonnull %4)
  %5 = getelementptr inbounds i8, ptr %1, i64 8
  %6 = load i64, ptr %5, align 8, !noalias !4828
  store i64 %6, ptr %3, align 8, !noalias !4828
  store ptr null, ptr %5, align 8, !noalias !4828
  %7 = load i64, ptr %1, align 8, !noalias !4828
  store i64 %7, ptr %4, align 8, !noalias !4828
  store ptr null, ptr %1, align 8, !noalias !4828
  %.val.cast.i = inttoptr i64 %6 to ptr
  %.val5.cast.i = inttoptr i64 %7 to ptr
  invoke void @_ZN8pybind117weakrefC2ENS_6handleES1_(ptr noundef nonnull align 8 dereferenceable(8) %0, ptr %.val.cast.i, ptr %.val5.cast.i)
          to label %"_ZZ22test_submodule_pytypesRN8pybind117module_EENK5$_100clENS_6objectENS_8functionE.exit.i" unwind label %22

"_ZZ22test_submodule_pytypesRN8pybind117module_EENK5$_100clENS_6objectENS_8functionE.exit.i": ; preds = %2
  %.not.i.i.i.i.i = icmp eq i64 %7, 0
  br i1 %.not.i.i.i.i.i, label %_ZN8pybind118functionD2Ev.exit.i, label %8

8:                                                ; preds = %"_ZZ22test_submodule_pytypesRN8pybind117module_EENK5$_100clENS_6objectENS_8functionE.exit.i"
  %9 = load i64, ptr %.val5.cast.i, align 8
  %10 = add nsw i64 %9, -1
  store i64 %10, ptr %.val5.cast.i, align 8
  %.not.i.i.i.i.i.i = icmp eq i64 %10, 0
  br i1 %.not.i.i.i.i.i.i, label %11, label %_ZN8pybind118functionD2Ev.exit.i

11:                                               ; preds = %8
  invoke void @_Py_Dealloc(ptr noundef nonnull %.val5.cast.i)
          to label %_ZN8pybind118functionD2Ev.exit.i unwind label %12

12:                                               ; preds = %11
  %13 = landingpad { ptr, i32 }
          catch ptr null
  %14 = extractvalue { ptr, i32 } %13, 0
  tail call void @__clang_call_terminate(ptr %14) #26
  unreachable

_ZN8pybind118functionD2Ev.exit.i:                 ; preds = %11, %8, %"_ZZ22test_submodule_pytypesRN8pybind117module_EENK5$_100clENS_6objectENS_8functionE.exit.i"
  %.not.i.i.i.i = icmp eq i64 %6, 0
  br i1 %.not.i.i.i.i, label %"_ZNO8pybind116detail15argument_loaderIJNS_6objectENS_8functionEEE9call_implINS_7weakrefERZ22test_submodule_pytypesRNS_7module_EE5$_100JLm0ELm1EENS0_9void_typeEEET_OT0_St16integer_sequenceImJXspT1_EEEOT2_.exit", label %15

15:                                               ; preds = %_ZN8pybind118functionD2Ev.exit.i
  %16 = load i64, ptr %.val.cast.i, align 8
  %17 = add nsw i64 %16, -1
  store i64 %17, ptr %.val.cast.i, align 8
  %.not.i.i.i.i6.i = icmp eq i64 %17, 0
  br i1 %.not.i.i.i.i6.i, label %18, label %"_ZNO8pybind116detail15argument_loaderIJNS_6objectENS_8functionEEE9call_implINS_7weakrefERZ22test_submodule_pytypesRNS_7module_EE5$_100JLm0ELm1EENS0_9void_typeEEET_OT0_St16integer_sequenceImJXspT1_EEEOT2_.exit"

18:                                               ; preds = %15
  invoke void @_Py_Dealloc(ptr noundef nonnull %.val.cast.i)
          to label %"_ZNO8pybind116detail15argument_loaderIJNS_6objectENS_8functionEEE9call_implINS_7weakrefERZ22test_submodule_pytypesRNS_7module_EE5$_100JLm0ELm1EENS0_9void_typeEEET_OT0_St16integer_sequenceImJXspT1_EEEOT2_.exit" unwind label %19

19:                                               ; preds = %18
  %20 = landingpad { ptr, i32 }
          catch ptr null
  %21 = extractvalue { ptr, i32 } %20, 0
  tail call void @__clang_call_terminate(ptr %21) #26
  unreachable

22:                                               ; preds = %2
  %23 = landingpad { ptr, i32 }
          cleanup
  call void @_ZN8pybind118functionD2Ev(ptr noundef nonnull align 8 dereferenceable(8) %4) #25
  call void @_ZN8pybind116objectD2Ev(ptr noundef nonnull align 8 dereferenceable(8) %3) #25
  resume { ptr, i32 } %23

"_ZNO8pybind116detail15argument_loaderIJNS_6objectENS_8functionEEE9call_implINS_7weakrefERZ22test_submodule_pytypesRNS_7module_EE5$_100JLm0ELm1EENS0_9void_typeEEET_OT0_St16integer_sequenceImJXspT1_EEEOT2_.exit": ; preds = %_ZN8pybind118functionD2Ev.exit.i, %15, %18
  call void @llvm.lifetime.end.p0(i64 8, ptr nonnull %3)
  call void @llvm.lifetime.end.p0(i64 8, ptr nonnull %4)
  ret void
}